target datalayout = "e-m:e-p270:32:32-p271:32:32-p272:64:64-i64:64-i128:128-f80:128-n8:16:32:64-S128"
target triple = "x86_64-pc-linux-gnu"

%struct.TupleTableSlotOps = type { i64, ptr, ptr, ptr, ptr, ptr, ptr, ptr, ptr, ptr, ptr, ptr, ptr }
%struct.Agg = type { %struct.Plan, i32, i32, i32, ptr, ptr, ptr, i64, i64, ptr, ptr, ptr }
%struct.Plan = type { i32, i32, double, double, double, i32, i8, i8, i8, i32, ptr, ptr, ptr, ptr, ptr, ptr, ptr }
%struct.AggState = type { %struct.ScanState, ptr, i32, i32, i32, i32, ptr, i32, i32, ptr, ptr, ptr, ptr, ptr, ptr, ptr, ptr, i8, i8, i32, i32, ptr, ptr, ptr, i32, i8, i32, ptr, ptr, ptr, ptr, ptr, ptr, i8, i32, ptr, ptr, ptr, ptr, ptr, ptr, i8, i8, i64, i64, i32, double, i64, i64, i64, i32, ptr, ptr, ptr, ptr }
%struct.ScanState = type { %struct.PlanState, ptr, ptr, ptr }
%struct.PlanState = type { i32, ptr, ptr, ptr, ptr, ptr, ptr, ptr, ptr, ptr, ptr, ptr, ptr, ptr, ptr, ptr, ptr, ptr, i8, ptr, ptr, ptr, ptr, ptr, i8, i8, i8, i8, i8, i8, i8, i8 }
%struct.TupleTableSlot = type { i32, i16, i16, ptr, ptr, ptr, ptr, ptr, %struct.ItemPointerData, i32 }
%struct.ItemPointerData = type { %struct.BlockIdData, i16 }
%struct.BlockIdData = type { i16, i16 }
%struct.AggStatePerHashData = type { ptr, %struct.tuplehash_iterator, ptr, ptr, ptr, i32, i32, i32, ptr, ptr, ptr }
%struct.tuplehash_iterator = type { i32, i32, i8 }
%struct.ExprContext = type { i32, ptr, ptr, ptr, ptr, ptr, ptr, ptr, ptr, ptr, i64, i8, i64, i8, ptr, ptr, ptr, ptr }
%struct.HashAggSpill = type { i32, ptr, ptr, i32, i32, ptr }
%struct.TupleHashEntryData = type { ptr, ptr, i32, i32 }

; Function Attrs: inlinehint nounwind uwtable
define internal ptr @ExecClearTuple(ptr noundef %0) #3 {
  %2 = alloca ptr, align 8
  store ptr %0, ptr %2, align 8
  %3 = load ptr, ptr %2, align 8
  %4 = getelementptr inbounds nuw %struct.TupleTableSlot, ptr %3, i32 0, i32 3
  %5 = load ptr, ptr %4, align 8
  %6 = getelementptr inbounds nuw %struct.TupleTableSlotOps, ptr %5, i32 0, i32 3
  %7 = load ptr, ptr %6, align 8
  %8 = load ptr, ptr %2, align 8
  call void %7(ptr noundef %8)
  %9 = load ptr, ptr %2, align 8
  ret ptr %9
}

; Function Attrs: inlinehint nounwind uwtable
define internal void @slot_getsomeattrs(ptr noundef %0, i32 noundef %1) #3 {
  %3 = alloca ptr, align 8
  %4 = alloca i32, align 4
  store ptr %0, ptr %3, align 8
  store i32 %1, ptr %4, align 4
  %5 = load ptr, ptr %3, align 8
  %6 = getelementptr inbounds nuw %struct.TupleTableSlot, ptr %5, i32 0, i32 2
  %7 = load i16, ptr %6, align 2
  %8 = sext i16 %7 to i32
  %9 = load i32, ptr %4, align 4
  %10 = icmp slt i32 %8, %9
  br i1 %10, label %11, label %14

11:                                               ; preds = %2
  %12 = load ptr, ptr %3, align 8
  %13 = load i32, ptr %4, align 4
  call void @slot_getsomeattrs_int(ptr noundef %12, i32 noundef %13)
  br label %14

14:                                               ; preds = %11, %2
  ret void
}

; Function Attrs: inlinehint nounwind uwtable
define internal void @prepare_hash_slot(ptr noundef %0, ptr noundef %1, ptr noundef %2) #3 {
  %4 = alloca ptr, align 8
  %5 = alloca ptr, align 8
  %6 = alloca ptr, align 8
  %7 = alloca i32, align 4
  %8 = alloca i32, align 4
  store ptr %0, ptr %4, align 8
  store ptr %1, ptr %5, align 8
  store ptr %2, ptr %6, align 8
  call void @llvm.lifetime.start.p0(i64 4, ptr %7) #9
  %9 = load ptr, ptr %5, align 8
  %10 = load ptr, ptr %4, align 8
  %11 = getelementptr inbounds nuw %struct.AggStatePerHashData, ptr %10, i32 0, i32 7
  %12 = load i32, ptr %11, align 8
  call void @slot_getsomeattrs(ptr noundef %9, i32 noundef %12)
  %13 = load ptr, ptr %6, align 8
  %14 = call ptr @ExecClearTuple(ptr noundef %13)
  store i32 0, ptr %7, align 4
  br label %15

15:                                               ; preds = %59, %3
  %16 = load i32, ptr %7, align 4
  %17 = load ptr, ptr %4, align 8
  %18 = getelementptr inbounds nuw %struct.AggStatePerHashData, ptr %17, i32 0, i32 6
  %19 = load i32, ptr %18, align 4
  %20 = icmp slt i32 %16, %19
  br i1 %20, label %21, label %62

21:                                               ; preds = %15
  call void @llvm.lifetime.start.p0(i64 4, ptr %8) #9
  %22 = load ptr, ptr %4, align 8
  %23 = getelementptr inbounds nuw %struct.AggStatePerHashData, ptr %22, i32 0, i32 8
  %24 = load ptr, ptr %23, align 8
  %25 = load i32, ptr %7, align 4
  %26 = sext i32 %25 to i64
  %27 = getelementptr inbounds i16, ptr %24, i64 %26
  %28 = load i16, ptr %27, align 2
  %29 = sext i16 %28 to i32
  %30 = sub i32 %29, 1
  store i32 %30, ptr %8, align 4
  %31 = load ptr, ptr %5, align 8
  %32 = getelementptr inbounds nuw %struct.TupleTableSlot, ptr %31, i32 0, i32 5
  %33 = load ptr, ptr %32, align 8
  %34 = load i32, ptr %8, align 4
  %35 = sext i32 %34 to i64
  %36 = getelementptr inbounds i64, ptr %33, i64 %35
  %37 = load i64, ptr %36, align 8
  %38 = load ptr, ptr %6, align 8
  %39 = getelementptr inbounds nuw %struct.TupleTableSlot, ptr %38, i32 0, i32 5
  %40 = load ptr, ptr %39, align 8
  %41 = load i32, ptr %7, align 4
  %42 = sext i32 %41 to i64
  %43 = getelementptr inbounds i64, ptr %40, i64 %42
  store i64 %37, ptr %43, align 8
  %44 = load ptr, ptr %5, align 8
  %45 = getelementptr inbounds nuw %struct.TupleTableSlot, ptr %44, i32 0, i32 6
  %46 = load ptr, ptr %45, align 8
  %47 = load i32, ptr %8, align 4
  %48 = sext i32 %47 to i64
  %49 = getelementptr inbounds i8, ptr %46, i64 %48
  %50 = load i8, ptr %49, align 1, !range !4, !noundef !5
  %51 = trunc i8 %50 to i1
  %52 = load ptr, ptr %6, align 8
  %53 = getelementptr inbounds nuw %struct.TupleTableSlot, ptr %52, i32 0, i32 6
  %54 = load ptr, ptr %53, align 8
  %55 = load i32, ptr %7, align 4
  %56 = sext i32 %55 to i64
  %57 = getelementptr inbounds i8, ptr %54, i64 %56
  %58 = zext i1 %51 to i8
  store i8 %58, ptr %57, align 1
  call void @llvm.lifetime.end.p0(i64 4, ptr %8) #9
  br label %59

59:                                               ; preds = %21
  %60 = load i32, ptr %7, align 4
  %61 = add i32 %60, 1
  store i32 %61, ptr %7, align 4
  br label %15, !llvm.loop !47

62:                                               ; preds = %15
  %63 = load ptr, ptr %6, align 8
  %64 = call ptr @ExecStoreVirtualTuple(ptr noundef %63)
  call void @llvm.lifetime.end.p0(i64 4, ptr %7) #9
  ret void
}

; Function Attrs: nounwind uwtable
define internal void @select_current_set(ptr noundef %0, i32 noundef %1, i1 noundef zeroext %2) #0 {
  %4 = alloca ptr, align 8
  %5 = alloca i32, align 4
  %6 = alloca i8, align 1
  store ptr %0, ptr %4, align 8
  store i32 %1, ptr %5, align 4
  %7 = zext i1 %2 to i8
  store i8 %7, ptr %6, align 1
  %8 = load i8, ptr %6, align 1, !range !4, !noundef !5
  %9 = trunc i8 %8 to i1
  br i1 %9, label %10, label %16

10:                                               ; preds = %3
  %11 = load ptr, ptr %4, align 8
  %12 = getelementptr inbounds nuw %struct.AggState, ptr %11, i32 0, i32 11
  %13 = load ptr, ptr %12, align 8
  %14 = load ptr, ptr %4, align 8
  %15 = getelementptr inbounds nuw %struct.AggState, ptr %14, i32 0, i32 14
  store ptr %13, ptr %15, align 8
  br label %26

16:                                               ; preds = %3
  %17 = load ptr, ptr %4, align 8
  %18 = getelementptr inbounds nuw %struct.AggState, ptr %17, i32 0, i32 12
  %19 = load ptr, ptr %18, align 8
  %20 = load i32, ptr %5, align 4
  %21 = sext i32 %20 to i64
  %22 = getelementptr inbounds ptr, ptr %19, i64 %21
  %23 = load ptr, ptr %22, align 8
  %24 = load ptr, ptr %4, align 8
  %25 = getelementptr inbounds nuw %struct.AggState, ptr %24, i32 0, i32 14
  store ptr %23, ptr %25, align 8
  br label %26

26:                                               ; preds = %16, %10
  %27 = load i32, ptr %5, align 4
  %28 = load ptr, ptr %4, align 8
  %29 = getelementptr inbounds nuw %struct.AggState, ptr %28, i32 0, i32 20
  store i32 %27, ptr %29, align 8
  ret void
}

; Function Attrs: nounwind uwtable
define internal void @lookup_hash_entries(ptr noundef %0) #0 {
  %2 = alloca ptr, align 8
  %3 = alloca ptr, align 8
  %4 = alloca ptr, align 8
  %5 = alloca i32, align 4
  %6 = alloca ptr, align 8
  %7 = alloca ptr, align 8
  %8 = alloca ptr, align 8
  %9 = alloca ptr, align 8
  %10 = alloca i32, align 4
  %11 = alloca i8, align 1
  %12 = alloca ptr, align 8
  %13 = alloca ptr, align 8
  %14 = alloca ptr, align 8
  store ptr %0, ptr %2, align 8
  call void @llvm.lifetime.start.p0(i64 8, ptr %3) #9
  %15 = load ptr, ptr %2, align 8
  %16 = getelementptr inbounds nuw %struct.AggState, ptr %15, i32 0, i32 52
  %17 = load ptr, ptr %16, align 8
  store ptr %17, ptr %3, align 8
  call void @llvm.lifetime.start.p0(i64 8, ptr %4) #9
  %18 = load ptr, ptr %2, align 8
  %19 = getelementptr inbounds nuw %struct.AggState, ptr %18, i32 0, i32 13
  %20 = load ptr, ptr %19, align 8
  %21 = getelementptr inbounds nuw %struct.ExprContext, ptr %20, i32 0, i32 3
  %22 = load ptr, ptr %21, align 8
  store ptr %22, ptr %4, align 8
  call void @llvm.lifetime.start.p0(i64 4, ptr %5) #9
  store i32 0, ptr %5, align 4
  br label %23

23:                                               ; preds = %117, %1
  %24 = load i32, ptr %5, align 4
  %25 = load ptr, ptr %2, align 8
  %26 = getelementptr inbounds nuw %struct.AggState, ptr %25, i32 0, i32 34
  %27 = load i32, ptr %26, align 4
  %28 = icmp slt i32 %24, %27
  br i1 %28, label %29, label %120

29:                                               ; preds = %23
  call void @llvm.lifetime.start.p0(i64 8, ptr %6) #9
  %30 = load ptr, ptr %2, align 8
  %31 = getelementptr inbounds nuw %struct.AggState, ptr %30, i32 0, i32 51
  %32 = load ptr, ptr %31, align 8
  %33 = load i32, ptr %5, align 4
  %34 = sext i32 %33 to i64
  %35 = getelementptr inbounds %struct.AggStatePerHashData, ptr %32, i64 %34
  store ptr %35, ptr %6, align 8
  call void @llvm.lifetime.start.p0(i64 8, ptr %7) #9
  %36 = load ptr, ptr %6, align 8
  %37 = getelementptr inbounds nuw %struct.AggStatePerHashData, ptr %36, i32 0, i32 0
  %38 = load ptr, ptr %37, align 8
  store ptr %38, ptr %7, align 8
  call void @llvm.lifetime.start.p0(i64 8, ptr %8) #9
  %39 = load ptr, ptr %6, align 8
  %40 = getelementptr inbounds nuw %struct.AggStatePerHashData, ptr %39, i32 0, i32 2
  %41 = load ptr, ptr %40, align 8
  store ptr %41, ptr %8, align 8
  call void @llvm.lifetime.start.p0(i64 8, ptr %9) #9
  call void @llvm.lifetime.start.p0(i64 4, ptr %10) #9
  call void @llvm.lifetime.start.p0(i64 1, ptr %11) #9
  store i8 0, ptr %11, align 1
  call void @llvm.lifetime.start.p0(i64 8, ptr %12) #9
  %42 = load ptr, ptr %2, align 8
  %43 = getelementptr inbounds nuw %struct.AggState, ptr %42, i32 0, i32 42
  %44 = load i8, ptr %43, align 1, !range !4, !noundef !5
  %45 = trunc i8 %44 to i1
  br i1 %45, label %46, label %47

46:                                               ; preds = %29
  br label %48

47:                                               ; preds = %29
  br label %48

48:                                               ; preds = %47, %46
  %49 = phi ptr [ null, %46 ], [ %11, %47 ]
  store ptr %49, ptr %12, align 8
  %50 = load ptr, ptr %2, align 8
  %51 = load i32, ptr %5, align 4
  call void @select_current_set(ptr noundef %50, i32 noundef %51, i1 noundef zeroext true)
  %52 = load ptr, ptr %6, align 8
  %53 = load ptr, ptr %4, align 8
  %54 = load ptr, ptr %8, align 8
  call void @prepare_hash_slot(ptr noundef %52, ptr noundef %53, ptr noundef %54)
  %55 = load ptr, ptr %7, align 8
  %56 = load ptr, ptr %8, align 8
  %57 = load ptr, ptr %12, align 8
  %58 = call ptr @LookupTupleHashEntry(ptr noundef %55, ptr noundef %56, ptr noundef %57, ptr noundef %10)
  store ptr %58, ptr %9, align 8
  %59 = load ptr, ptr %9, align 8
  %60 = icmp ne ptr %59, null
  br i1 %60, label %61, label %76

61:                                               ; preds = %48
  %62 = load i8, ptr %11, align 1, !range !4, !noundef !5
  %63 = trunc i8 %62 to i1
  br i1 %63, label %64, label %68

64:                                               ; preds = %61
  %65 = load ptr, ptr %2, align 8
  %66 = load ptr, ptr %7, align 8
  %67 = load ptr, ptr %9, align 8
  call void @initialize_hash_entry(ptr noundef %65, ptr noundef %66, ptr noundef %67)
  br label %68

68:                                               ; preds = %64, %61
  %69 = load ptr, ptr %9, align 8
  %70 = getelementptr inbounds nuw %struct.TupleHashEntryData, ptr %69, i32 0, i32 1
  %71 = load ptr, ptr %70, align 8
  %72 = load ptr, ptr %3, align 8
  %73 = load i32, ptr %5, align 4
  %74 = sext i32 %73 to i64
  %75 = getelementptr inbounds ptr, ptr %72, i64 %74
  store ptr %71, ptr %75, align 8
  br label %116

76:                                               ; preds = %48
  call void @llvm.lifetime.start.p0(i64 8, ptr %13) #9
  %77 = load ptr, ptr %2, align 8
  %78 = getelementptr inbounds nuw %struct.AggState, ptr %77, i32 0, i32 37
  %79 = load ptr, ptr %78, align 8
  %80 = load i32, ptr %5, align 4
  %81 = sext i32 %80 to i64
  %82 = getelementptr inbounds %struct.HashAggSpill, ptr %79, i64 %81
  store ptr %82, ptr %13, align 8
  call void @llvm.lifetime.start.p0(i64 8, ptr %14) #9
  %83 = load ptr, ptr %2, align 8
  %84 = getelementptr inbounds nuw %struct.AggState, ptr %83, i32 0, i32 13
  %85 = load ptr, ptr %84, align 8
  %86 = getelementptr inbounds nuw %struct.ExprContext, ptr %85, i32 0, i32 3
  %87 = load ptr, ptr %86, align 8
  store ptr %87, ptr %14, align 8
  %88 = load ptr, ptr %13, align 8
  %89 = getelementptr inbounds nuw %struct.HashAggSpill, ptr %88, i32 0, i32 1
  %90 = load ptr, ptr %89, align 8
  %91 = icmp eq ptr %90, null
  br i1 %91, label %92, label %106

92:                                               ; preds = %76
  %93 = load ptr, ptr %13, align 8
  %94 = load ptr, ptr %2, align 8
  %95 = getelementptr inbounds nuw %struct.AggState, ptr %94, i32 0, i32 36
  %96 = load ptr, ptr %95, align 8
  %97 = load ptr, ptr %6, align 8
  %98 = getelementptr inbounds nuw %struct.AggStatePerHashData, ptr %97, i32 0, i32 10
  %99 = load ptr, ptr %98, align 8
  %100 = getelementptr inbounds nuw %struct.Agg, ptr %99, i32 0, i32 7
  %101 = load i64, ptr %100, align 8
  %102 = sitofp i64 %101 to double
  %103 = load ptr, ptr %2, align 8
  %104 = getelementptr inbounds nuw %struct.AggState, ptr %103, i32 0, i32 46
  %105 = load double, ptr %104, align 8
  call void @hashagg_spill_init(ptr noundef %93, ptr noundef %96, i32 noundef 0, double noundef %102, double noundef %105)
  br label %106

106:                                              ; preds = %92, %76
  %107 = load ptr, ptr %2, align 8
  %108 = load ptr, ptr %13, align 8
  %109 = load ptr, ptr %14, align 8
  %110 = load i32, ptr %10, align 4
  %111 = call i64 @hashagg_spill_tuple(ptr noundef %107, ptr noundef %108, ptr noundef %109, i32 noundef %110)
  %112 = load ptr, ptr %3, align 8
  %113 = load i32, ptr %5, align 4
  %114 = sext i32 %113 to i64
  %115 = getelementptr inbounds ptr, ptr %112, i64 %114
  store ptr null, ptr %115, align 8
  call void @llvm.lifetime.end.p0(i64 8, ptr %14) #9
  call void @llvm.lifetime.end.p0(i64 8, ptr %13) #9
  br label %116

116:                                              ; preds = %106, %68
  call void @llvm.lifetime.end.p0(i64 8, ptr %12) #9
  call void @llvm.lifetime.end.p0(i64 1, ptr %11) #9
  call void @llvm.lifetime.end.p0(i64 4, ptr %10) #9
  call void @llvm.lifetime.end.p0(i64 8, ptr %9) #9
  call void @llvm.lifetime.end.p0(i64 8, ptr %8) #9
  call void @llvm.lifetime.end.p0(i64 8, ptr %7) #9
  call void @llvm.lifetime.end.p0(i64 8, ptr %6) #9
  br label %117

117:                                              ; preds = %116
  %118 = load i32, ptr %5, align 4
  %119 = add i32 %118, 1
  store i32 %119, ptr %5, align 4
  br label %23, !llvm.loop !45

120:                                              ; preds = %23
  call void @llvm.lifetime.end.p0(i64 4, ptr %5) #9
  call void @llvm.lifetime.end.p0(i64 8, ptr %4) #9
  call void @llvm.lifetime.end.p0(i64 8, ptr %3) #9
  ret void
}