; Function Attrs: nounwind uwtable
define internal fastcc void @lookup_hash_entries(ptr noundef %0) unnamed_addr #2 {
  %2 = alloca i32, align 4
  %3 = alloca i8, align 1
  %4 = getelementptr inbounds nuw i8, ptr %0, i64 568
  %5 = load ptr, ptr %4, align 8
  %6 = getelementptr inbounds nuw i8, ptr %0, i64 296
  %7 = load ptr, ptr %6, align 8
  %8 = getelementptr inbounds nuw i8, ptr %7, i64 24
  %9 = load ptr, ptr %8, align 8
  %10 = getelementptr inbounds nuw i8, ptr %0, i64 436
  %11 = load i32, ptr %10, align 4
  %12 = icmp sgt i32 %11, 0
  br i1 %12, label %.lr.ph, label %._crit_edge

.lr.ph:                                           ; preds = %1
  %13 = getelementptr inbounds nuw i8, ptr %0, i64 560
  %14 = getelementptr inbounds nuw i8, ptr %0, i64 489
  %15 = getelementptr inbounds nuw i8, ptr %0, i64 280
  %16 = getelementptr inbounds nuw i8, ptr %0, i64 304
  %17 = getelementptr inbounds nuw i8, ptr %0, i64 336
  %18 = getelementptr inbounds nuw i8, ptr %9, i64 6
  %19 = getelementptr inbounds nuw i8, ptr %9, i64 24
  %20 = getelementptr inbounds nuw i8, ptr %9, i64 32
  %21 = getelementptr inbounds nuw i8, ptr %0, i64 456
  %22 = getelementptr inbounds nuw i8, ptr %0, i64 448
  %23 = getelementptr inbounds nuw i8, ptr %0, i64 520
  br label %24

24:                                               ; preds = %.lr.ph, %96
  %indvars.iv = phi i64 [ 0, %.lr.ph ], [ %indvars.iv.next, %96 ]
  %25 = load ptr, ptr %13, align 8
  %26 = getelementptr inbounds nuw %struct.AggStatePerHashData, ptr %25, i64 %indvars.iv
  %27 = load ptr, ptr %26, align 8
  %28 = getelementptr inbounds nuw i8, ptr %26, i64 24
  %29 = load ptr, ptr %28, align 8
  call void @llvm.lifetime.start.p0(i64 4, ptr nonnull %2) #12
  call void @llvm.lifetime.start.p0(i64 1, ptr nonnull %3) #12
  store i8 0, ptr %3, align 1
  %30 = load i8, ptr %14, align 1, !range !6, !noundef !7
  %31 = trunc nuw i8 %30 to i1
  %. = select i1 %31, ptr null, ptr %3
  %.sink.i = load ptr, ptr %15, align 8
  store ptr %.sink.i, ptr %16, align 8
  %32 = trunc nuw nsw i64 %indvars.iv to i32
  store i32 %32, ptr %17, align 8
  %33 = getelementptr inbounds nuw i8, ptr %26, i64 56
  %34 = load i32, ptr %33, align 8
  %35 = load i16, ptr %18, align 2
  %36 = sext i16 %35 to i32
  %37 = icmp sgt i32 %34, %36
  br i1 %37, label %38, label %slot_getsomeattrs.exit.i

38:                                               ; preds = %24
  call void @slot_getsomeattrs_int(ptr noundef nonnull %9, i32 noundef %34) #12
  br label %slot_getsomeattrs.exit.i

slot_getsomeattrs.exit.i:                         ; preds = %38, %24
  %39 = getelementptr inbounds nuw i8, ptr %29, i64 8
  %40 = load ptr, ptr %39, align 8
  %41 = getelementptr inbounds nuw i8, ptr %40, i64 24
  %42 = load ptr, ptr %41, align 8
  call void %42(ptr noundef %29) #12
  %43 = getelementptr inbounds nuw i8, ptr %26, i64 52
  %44 = load i32, ptr %43, align 4
  %45 = icmp sgt i32 %44, 0
  br i1 %45, label %.lr.ph.i, label %prepare_hash_slot.exit

.lr.ph.i:                                         ; preds = %slot_getsomeattrs.exit.i
  %46 = getelementptr inbounds nuw i8, ptr %26, i64 64
  %47 = getelementptr inbounds nuw i8, ptr %29, i64 24
  %48 = getelementptr inbounds nuw i8, ptr %29, i64 32
  br label %49

49:                                               ; preds = %49, %.lr.ph.i
  %indvars.iv.i = phi i64 [ 0, %.lr.ph.i ], [ %indvars.iv.next.i, %49 ]
  %50 = load ptr, ptr %46, align 8
  %51 = getelementptr inbounds nuw i16, ptr %50, i64 %indvars.iv.i
  %52 = load i16, ptr %51, align 2
  %53 = sext i16 %52 to i64
  %54 = add nsw i64 %53, -1
  %55 = load ptr, ptr %19, align 8
  %56 = getelementptr inbounds i64, ptr %55, i64 %54
  %57 = load i64, ptr %56, align 8
  %58 = load ptr, ptr %47, align 8
  %59 = getelementptr inbounds nuw i64, ptr %58, i64 %indvars.iv.i
  store i64 %57, ptr %59, align 8
  %60 = load ptr, ptr %20, align 8
  %61 = getelementptr inbounds i8, ptr %60, i64 %54
  %62 = load i8, ptr %61, align 1, !range !6, !noundef !7
  %63 = load ptr, ptr %48, align 8
  %64 = getelementptr inbounds nuw i8, ptr %63, i64 %indvars.iv.i
  store i8 %62, ptr %64, align 1
  %indvars.iv.next.i = add nuw nsw i64 %indvars.iv.i, 1
  %65 = load i32, ptr %43, align 4
  %66 = sext i32 %65 to i64
  %67 = icmp slt i64 %indvars.iv.next.i, %66
  br i1 %67, label %49, label %prepare_hash_slot.exit, !llvm.loop !40

prepare_hash_slot.exit:                           ; preds = %49, %slot_getsomeattrs.exit.i
  %68 = call ptr @ExecStoreVirtualTuple(ptr noundef nonnull %29) #12
  %69 = call ptr @LookupTupleHashEntry(ptr noundef %27, ptr noundef nonnull %29, ptr noundef %., ptr noundef nonnull %2) #12
  %.not = icmp eq ptr %69, null
  br i1 %.not, label %77, label %70

70:                                               ; preds = %prepare_hash_slot.exit
  %71 = load i8, ptr %3, align 1, !range !6, !noundef !7
  %72 = trunc nuw i8 %71 to i1
  br i1 %72, label %73, label %74

73:                                               ; preds = %70
  call fastcc void @initialize_hash_entry(ptr noundef %0, ptr noundef %27, ptr noundef %69)
  br label %74

74:                                               ; preds = %73, %70
  %75 = getelementptr inbounds nuw i8, ptr %69, i64 8
  %76 = load ptr, ptr %75, align 8
  br label %96

77:                                               ; preds = %prepare_hash_slot.exit
  %78 = load ptr, ptr %21, align 8
  %79 = getelementptr inbounds nuw %struct.HashAggSpill, ptr %78, i64 %indvars.iv
  %80 = load ptr, ptr %6, align 8
  %81 = getelementptr inbounds nuw i8, ptr %80, i64 24
  %82 = load ptr, ptr %81, align 8
  %83 = getelementptr inbounds nuw i8, ptr %79, i64 8
  %84 = load ptr, ptr %83, align 8
  %85 = icmp eq ptr %84, null
  br i1 %85, label %86, label %94

86:                                               ; preds = %77
  %87 = load ptr, ptr %22, align 8
  %88 = getelementptr inbounds nuw i8, ptr %26, i64 80
  %89 = load ptr, ptr %88, align 8
  %90 = getelementptr inbounds nuw i8, ptr %89, i64 144
  %91 = load i64, ptr %90, align 8
  %92 = sitofp i64 %91 to double
  %93 = load double, ptr %23, align 8
  call fastcc void @hashagg_spill_init(ptr noundef nonnull %79, ptr noundef %87, i32 noundef 0, double noundef %92, double noundef %93)
  br label %94

94:                                               ; preds = %86, %77
  %95 = load i32, ptr %2, align 4
  call fastcc void @hashagg_spill_tuple(ptr noundef nonnull %0, ptr noundef nonnull %79, ptr noundef %82, i32 noundef %95)
  br label %96

96:                                               ; preds = %94, %74
  %.sink = phi ptr [ null, %94 ], [ %76, %74 ]
  %97 = getelementptr inbounds nuw ptr, ptr %5, i64 %indvars.iv
  store ptr %.sink, ptr %97, align 8
  call void @llvm.lifetime.end.p0(i64 1, ptr nonnull %3) #12
  call void @llvm.lifetime.end.p0(i64 4, ptr nonnull %2) #12
  %indvars.iv.next = add nuw nsw i64 %indvars.iv, 1
  %98 = load i32, ptr %10, align 4
  %99 = sext i32 %98 to i64
  %100 = icmp slt i64 %indvars.iv.next, %99
  br i1 %100, label %24, label %._crit_edge, !llvm.loop !42

._crit_edge:                                      ; preds = %96, %1
  ret void
}